target datalayout = "e-m:e-p270:32:32-p271:32:32-p272:64:64-i64:64-i128:128-f80:128-n8:16:32:64-S128"
target triple = "x86_64-pc-linux-gnu"

%struct.popup_pos_t = type { i32, i32, i32, i32 }
%struct.each_t = type { ptr, ptr, ptr }
%struct.signal_params_t = type { ptr, ptr }
%struct._GdkEventKey = type { i32, ptr, i8, i32, i32, i32, i32, ptr, i16, i8, i8 }

@global_row_count = external global i32, align 4
@enter_key_in_effect = internal global i32 0, align 4
@control_key_in_effect = internal global i32 0, align 4
@popup_pos = external global %struct.popup_pos_t, align 4

; Function Attrs: nounwind uwtable
define dso_local i32 @key_pressed(ptr noundef %0, ptr noundef %1, ptr noundef %2) #0 {
  %4 = alloca ptr, align 8
  %5 = alloca ptr, align 8
  %6 = alloca ptr, align 8
  %7 = alloca %struct.each_t, align 8
  %8 = alloca ptr, align 8
  store ptr %0, ptr %4, align 8
  store ptr %1, ptr %5, align 8
  store ptr %2, ptr %6, align 8
  store i32 0, ptr @control_key_in_effect, align 4
  store i32 0, ptr @enter_key_in_effect, align 4
  %9 = load ptr, ptr %5, align 8
  %10 = getelementptr inbounds nuw %struct._GdkEventKey, ptr %9, i32 0, i32 5
  %11 = load i32, ptr %10, align 4
  %12 = icmp eq i32 %11, 65507
  br i1 %12, label %18, label %13

13:                                               ; preds = %3
  %14 = load ptr, ptr %5, align 8
  %15 = getelementptr inbounds nuw %struct._GdkEventKey, ptr %14, i32 0, i32 5
  %16 = load i32, ptr %15, align 4
  %17 = icmp eq i32 %16, 65508
  br i1 %17, label %18, label %19

18:                                               ; preds = %13, %3
  store i32 1, ptr @control_key_in_effect, align 4
  br label %37

19:                                               ; preds = %13
  %20 = load ptr, ptr %5, align 8
  %21 = getelementptr inbounds nuw %struct._GdkEventKey, ptr %20, i32 0, i32 5
  %22 = load i32, ptr %21, align 4
  %23 = icmp eq i32 %22, 65293
  br i1 %23, label %24, label %36

24:                                               ; preds = %19
  call void @llvm.lifetime.start.p0(i64 24, ptr %7) #11
  call void @llvm.lifetime.start.p0(i64 8, ptr %8) #11
  store ptr null, ptr %8, align 8
  %25 = load ptr, ptr %4, align 8
  %26 = call ptr @gtk_tree_view_get_selection(ptr noundef %25)
  store ptr %26, ptr %8, align 8
  call void @llvm.memset.p0.i64(ptr align 8 %7, i8 0, i64 24, i1 false)
  %27 = load ptr, ptr %4, align 8
  %28 = getelementptr inbounds nuw %struct.each_t, ptr %7, i32 0, i32 2
  store ptr %27, ptr %28, align 8
  %29 = load ptr, ptr %6, align 8
  %30 = getelementptr inbounds nuw %struct.signal_params_t, ptr %29, i32 0, i32 0
  %31 = load ptr, ptr %30, align 8
  %32 = getelementptr inbounds nuw %struct.each_t, ptr %7, i32 0, i32 0
  store ptr %31, ptr %32, align 8
  %33 = load ptr, ptr %8, align 8
  %34 = call i32 @gtk_tree_selection_count_selected_rows(ptr noundef %33)
  store i32 %34, ptr @global_row_count, align 4
  store i32 10, ptr @popup_pos, align 4
  store i32 10, ptr @popup_pos, align 4
  store i32 1, ptr getelementptr inbounds nuw (%struct.popup_pos_t, ptr @popup_pos, i32 0, i32 2), align 4
  store i32 0, ptr getelementptr inbounds nuw (%struct.popup_pos_t, ptr @popup_pos, i32 0, i32 3), align 4
  %35 = load ptr, ptr %8, align 8
  call void @gtk_tree_selection_selected_foreach(ptr noundef %35, ptr noundef @_foreach_full_info, ptr noundef %7)
  store i32 1, ptr @enter_key_in_effect, align 4
  call void @llvm.lifetime.end.p0(i64 8, ptr %8) #11
  call void @llvm.lifetime.end.p0(i64 24, ptr %7) #11
  br label %36

36:                                               ; preds = %24, %19
  br label %37

37:                                               ; preds = %36, %18
  ret i32 0
}