; Function Attrs: nounwind uwtable
define dso_local noundef i32 @key_pressed(ptr noundef %0, ptr noundef readonly captures(none) %1, ptr noundef readonly captures(none) %2) #2 {
  %4 = alloca %struct.each_t, align 8
  store i1 false, ptr @enter_key_in_effect, align 4
  %5 = getelementptr inbounds nuw i8, ptr %1, i64 28
  %6 = load i32, ptr %5, align 4
  %cond = icmp eq i32 %6, 65293
  br i1 %cond, label %7, label %13

7:                                                ; preds = %3
  call void @llvm.lifetime.start.p0(i64 24, ptr nonnull %4) #16
  %8 = tail call ptr @gtk_tree_view_get_selection(ptr noundef %0) #16
  %9 = getelementptr inbounds nuw i8, ptr %4, i64 8
  store i64 0, ptr %9, align 8
  %10 = getelementptr inbounds nuw i8, ptr %4, i64 16
  store ptr %0, ptr %10, align 8
  %11 = load ptr, ptr %2, align 8
  store ptr %11, ptr %4, align 8
  %12 = tail call i32 @gtk_tree_selection_count_selected_rows(ptr noundef %8) #16
  store i32 %12, ptr @global_row_count, align 4
  store i32 10, ptr @popup_pos, align 4
  store i32 1, ptr getelementptr inbounds nuw (i8, ptr @popup_pos, i64 8), align 4
  store i32 0, ptr getelementptr inbounds nuw (i8, ptr @popup_pos, i64 12), align 4
  call void @gtk_tree_selection_selected_foreach(ptr noundef %8, ptr noundef nonnull @_foreach_full_info, ptr noundef nonnull %4) #16
  store i1 true, ptr @enter_key_in_effect, align 4
  call void @llvm.lifetime.end.p0(i64 24, ptr nonnull %4) #16
  br label %13

13:                                               ; preds = %3, %7
  ret i32 0
}